target datalayout = "e-m:e-p270:32:32-p271:32:32-p272:64:64-i64:64-i128:128-f80:128-n8:16:32:64-S128"
target triple = "x86_64-pc-linux-gnu"

%struct._timelib_time = type { i64, i64, i64, i64, i64, i64, i64, i32, ptr, ptr, i32, %struct._timelib_rel_time, i64, i32, i32, i32, i32, i32, i32, i32, i32, i32 }
%struct._timelib_rel_time = type { i64, i64, i64, i64, i64, i64, i64, i32, i32, i32, i32, i64, %struct.anon, i32, i32 }
%struct.anon = type { i32, i64 }

; Function Attrs: nounwind uwtable
define hidden i32 @timelib_time_compare(ptr noundef %0, ptr noundef %1) #0 {
  %3 = alloca i32, align 4
  %4 = alloca ptr, align 8
  %5 = alloca ptr, align 8
  store ptr %0, ptr %4, align 8
  store ptr %1, ptr %5, align 8
  %6 = load ptr, ptr %4, align 8
  %7 = getelementptr inbounds %struct._timelib_time, ptr %6, i32 0, i32 12
  %8 = load i64, ptr %7, align 8
  %9 = load ptr, ptr %5, align 8
  %10 = getelementptr inbounds %struct._timelib_time, ptr %9, i32 0, i32 12
  %11 = load i64, ptr %10, align 8
  %12 = icmp eq i64 %8, %11
  br i1 %12, label %13, label %31

13:                                               ; preds = %2
  %14 = load ptr, ptr %4, align 8
  %15 = getelementptr inbounds %struct._timelib_time, ptr %14, i32 0, i32 6
  %16 = load i64, ptr %15, align 8
  %17 = load ptr, ptr %5, align 8
  %18 = getelementptr inbounds %struct._timelib_time, ptr %17, i32 0, i32 6
  %19 = load i64, ptr %18, align 8
  %20 = icmp eq i64 %16, %19
  br i1 %20, label %21, label %22

21:                                               ; preds = %13
  store i32 0, ptr %3, align 4
  br label %40

22:                                               ; preds = %13
  %23 = load ptr, ptr %4, align 8
  %24 = getelementptr inbounds %struct._timelib_time, ptr %23, i32 0, i32 6
  %25 = load i64, ptr %24, align 8
  %26 = load ptr, ptr %5, align 8
  %27 = getelementptr inbounds %struct._timelib_time, ptr %26, i32 0, i32 6
  %28 = load i64, ptr %27, align 8
  %29 = icmp slt i64 %25, %28
  %30 = select i1 %29, i32 -1, i32 1
  store i32 %30, ptr %3, align 4
  br label %40

31:                                               ; preds = %2
  %32 = load ptr, ptr %4, align 8
  %33 = getelementptr inbounds %struct._timelib_time, ptr %32, i32 0, i32 12
  %34 = load i64, ptr %33, align 8
  %35 = load ptr, ptr %5, align 8
  %36 = getelementptr inbounds %struct._timelib_time, ptr %35, i32 0, i32 12
  %37 = load i64, ptr %36, align 8
  %38 = icmp slt i64 %34, %37
  %39 = select i1 %38, i32 -1, i32 1
  store i32 %39, ptr %3, align 4
  br label %40

40:                                               ; preds = %31, %22, %21
  %41 = load i32, ptr %3, align 4
  ret i32 %41
}