; Function Attrs: mustprogress nofree norecurse nosync nounwind willreturn memory(argmem: read) uwtable
define hidden i32 @timelib_time_compare(ptr nocapture noundef readonly %0, ptr nocapture noundef readonly %1) local_unnamed_addr #4 {
  %3 = getelementptr inbounds i8, ptr %0, i64 192
  %4 = load i64, ptr %3, align 8
  %5 = getelementptr inbounds i8, ptr %1, i64 192
  %6 = load i64, ptr %5, align 8
  %7 = icmp eq i64 %4, %6
  br i1 %7, label %8, label %17

8:                                                ; preds = %2
  %9 = getelementptr inbounds i8, ptr %0, i64 48
  %10 = load i64, ptr %9, align 8
  %11 = getelementptr inbounds i8, ptr %1, i64 48
  %12 = load i64, ptr %11, align 8
  %13 = icmp eq i64 %10, %12
  br i1 %13, label %20, label %14

14:                                               ; preds = %8
  %15 = icmp slt i64 %10, %12
  %16 = select i1 %15, i32 -1, i32 1
  br label %20

17:                                               ; preds = %2
  %18 = icmp slt i64 %4, %6
  %19 = select i1 %18, i32 -1, i32 1
  br label %20

20:                                               ; preds = %8, %17, %14
  %.0 = phi i32 [ %16, %14 ], [ %19, %17 ], [ 0, %8 ]
  ret i32 %.0
}